; Function Attrs: mustprogress uwtable
define internal void @_ZN9grpc_core12_GLOBAL__N_15RlsLb10RlsRequest6OrphanEv(ptr noundef nonnull align 8 dereferenceable(312) %this) unnamed_addr #3 align 2 personality ptr @__gxx_personality_v0 {
entry:
  %ref.tmp = alloca %"class.std::__cxx11::basic_string", align 8
  %call_ = getelementptr inbounds i8, ptr %this, i64 200
  %0 = load ptr, ptr %call_, align 8
  %cmp.not = icmp eq ptr %0, null
  br i1 %cmp.not, label %if.end6, label %if.then

if.then:                                          ; preds = %entry
  %1 = load atomic i8, ptr getelementptr inbounds (%"class.grpc_core::TraceFlag", ptr @_ZN9grpc_core17grpc_lb_rls_traceE, i64 0, i32 2, i32 0, i32 0) monotonic, align 8
  %2 = and i8 %1, 1
  %tobool.i.i.i.not = icmp eq i8 %2, 0
  br i1 %tobool.i.i.i.not, label %if.end, label %if.then2

if.then2:                                         ; preds = %if.then
  %lb_policy_ = getelementptr inbounds i8, ptr %this, i64 16
  %lb_policy_.val = load ptr, ptr %lb_policy_, align 8
  %key_ = getelementptr inbounds i8, ptr %this, i64 24
  call fastcc void @_ZNK9grpc_core12_GLOBAL__N_15RlsLb10RequestKey8ToStringB5cxx11Ev(ptr noalias nonnull align 8 %ref.tmp, ptr noundef nonnull align 8 dereferenceable(48) %key_)
  %call4 = call noundef ptr @_ZNKSt7__cxx1112basic_stringIcSt11char_traitsIcESaIcEE5c_strEv(ptr noundef nonnull align 8 dereferenceable(32) %ref.tmp) #31
  invoke void (ptr, i32, i32, ptr, ...) @gpr_log(ptr noundef nonnull @.str.90, i32 noundef 1659, i32 noundef 1, ptr noundef nonnull @.str.181, ptr noundef %lb_policy_.val, ptr noundef nonnull %this, ptr noundef %call4)
          to label %invoke.cont unwind label %lpad

invoke.cont:                                      ; preds = %if.then2
  call void @_ZNSt7__cxx1112basic_stringIcSt11char_traitsIcESaIcEED1Ev(ptr noundef nonnull align 8 dereferenceable(32) %ref.tmp) #31
  %.pre = load ptr, ptr %call_, align 8
  br label %if.end

lpad:                                             ; preds = %if.then2
  %3 = landingpad { ptr, i32 }
          cleanup
  call void @_ZNSt7__cxx1112basic_stringIcSt11char_traitsIcESaIcEED1Ev(ptr noundef nonnull align 8 dereferenceable(32) %ref.tmp) #31
  resume { ptr, i32 } %3

if.end:                                           ; preds = %invoke.cont, %if.then
  %4 = phi ptr [ %.pre, %invoke.cont ], [ %0, %if.then ]
  call void @_Z25grpc_call_cancel_internalP9grpc_call(ptr noundef %4)
  br label %if.end6

if.end6:                                          ; preds = %if.end, %entry
  %refs_.i = getelementptr inbounds i8, ptr %this, i64 8
  %5 = atomicrmw sub ptr %refs_.i, i64 1 acq_rel, align 8
  %cmp.i.i = icmp eq i64 %5, 1
  br i1 %cmp.i.i, label %if.then.i, label %_ZN9grpc_core20InternallyRefCountedINS_12_GLOBAL__N_15RlsLb10RlsRequestENS_11UnrefDeleteEE5UnrefERKNS_13DebugLocationEPKc.exit

if.then.i:                                        ; preds = %if.end6
  %vtable.i.i = load ptr, ptr %this, align 8
  %vfn.i.i = getelementptr inbounds i8, ptr %vtable.i.i, i64 16
  %6 = load ptr, ptr %vfn.i.i, align 8
  call void %6(ptr noundef nonnull align 8 dereferenceable(312) %this) #31
  br label %_ZN9grpc_core20InternallyRefCountedINS_12_GLOBAL__N_15RlsLb10RlsRequestENS_11UnrefDeleteEE5UnrefERKNS_13DebugLocationEPKc.exit

_ZN9grpc_core20InternallyRefCountedINS_12_GLOBAL__N_15RlsLb10RlsRequestENS_11UnrefDeleteEE5UnrefERKNS_13DebugLocationEPKc.exit: ; preds = %if.end6, %if.then.i
  ret void
}